; Function Attrs: mustprogress nofree nounwind willreturn memory(argmem: read) uwtable
define range(i32 -1, 2) i32 @checkBooleanConstant(ptr noundef readonly captures(none) %0) local_unnamed_addr #12 {
  %2 = tail call i32 @strcmp(ptr noundef nonnull dereferenceable(1) %0, ptr noundef nonnull dereferenceable(5) @.str.20) #24
  %3 = icmp eq i32 %2, 0
  br i1 %3, label %7, label %4

4:                                                ; preds = %1
  %5 = tail call i32 @strcmp(ptr noundef nonnull dereferenceable(1) %0, ptr noundef nonnull dereferenceable(6) @.str.21) #24
  %6 = icmp ne i32 %5, 0
  %. = sext i1 %6 to i32
  br label %7

7:                                                ; preds = %4, %1
  %.0 = phi i32 [ 1, %1 ], [ %., %4 ]
  ret i32 %.0
}